target datalayout = "e-m:e-p270:32:32-p271:32:32-p272:64:64-i64:64-i128:128-f80:128-n8:16:32:64-S128"
target triple = "x86_64-pc-linux-gnu"

%class.TypedMethodOptionMatcher = type { %class.MethodMatcher, ptr, i32, %union.anon }
%class.MethodMatcher = type { ptr, ptr, ptr, i32, i32 }
%union.anon = type { i64 }

@g_assert_poison = external global ptr, align 8
@.str.10 = private unnamed_addr constant [46 x i8] c"src/hotspot/share/compiler/compilerOracle.cpp\00", align 1
@_ZL11option_list = internal global ptr null, align 8
@_ZL13option_filter = internal global [41 x i8] zeroinitializer, align 16

; Function Attrs: mustprogress nounwind uwtable
define hidden noundef zeroext i1 @_ZN24TypedMethodOptionMatcher5valueIbEET_v(ptr noundef nonnull align 8 dereferenceable(56) %0) #1 align 2 {
  %2 = alloca ptr, align 8
  store ptr %0, ptr %2, align 8
  %3 = load ptr, ptr %2, align 8
  %4 = getelementptr inbounds %class.TypedMethodOptionMatcher, ptr %3, i32 0, i32 3
  %5 = load i8, ptr %4, align 8
  %6 = trunc i8 %5 to i1
  ret i1 %6
}

; Function Attrs: mustprogress nounwind uwtable
define hidden noundef ptr @_ZN24TypedMethodOptionMatcher5matchERK12methodHandle18CompileCommandEnum(ptr noundef nonnull align 8 dereferenceable(56) %0, ptr noundef nonnull align 8 dereferenceable(16) %1, i32 noundef %2) #1 align 2 {
  %4 = alloca ptr, align 8
  %5 = alloca ptr, align 8
  %6 = alloca ptr, align 8
  %7 = alloca i32, align 4
  %8 = alloca ptr, align 8
  store ptr %0, ptr %5, align 8
  store ptr %1, ptr %6, align 8
  store i32 %2, ptr %7, align 4
  %9 = load ptr, ptr %5, align 8
  store ptr %9, ptr %8, align 8
  br label %10

10:                                               ; preds = %26, %3
  %11 = load ptr, ptr %8, align 8
  %12 = icmp ne ptr %11, null
  br i1 %12, label %13, label %29

13:                                               ; preds = %10
  %14 = load ptr, ptr %8, align 8
  %15 = getelementptr inbounds %class.TypedMethodOptionMatcher, ptr %14, i32 0, i32 2
  %16 = load i32, ptr %15, align 8
  %17 = load i32, ptr %7, align 4
  %18 = icmp eq i32 %16, %17
  br i1 %18, label %19, label %26

19:                                               ; preds = %13
  %20 = load ptr, ptr %8, align 8
  %21 = load ptr, ptr %6, align 8
  %22 = call noundef zeroext i1 @_ZNK13MethodMatcher7matchesERK12methodHandle(ptr noundef nonnull align 8 dereferenceable(32) %20, ptr noundef nonnull align 8 dereferenceable(16) %21)
  br i1 %22, label %23, label %25

23:                                               ; preds = %19
  %24 = load ptr, ptr %8, align 8
  store ptr %24, ptr %4, align 8
  br label %30

25:                                               ; preds = %19
  br label %26

26:                                               ; preds = %25, %13
  %27 = load ptr, ptr %8, align 8
  %28 = call noundef ptr @_ZN24TypedMethodOptionMatcher4nextEv(ptr noundef nonnull align 8 dereferenceable(56) %27)
  store ptr %28, ptr %8, align 8
  br label %10, !llvm.loop !6

29:                                               ; preds = %10
  store ptr null, ptr %4, align 8
  br label %30

30:                                               ; preds = %29, %23
  %31 = load ptr, ptr %4, align 8
  ret ptr %31
}

; Function Attrs: mustprogress nounwind uwtable
define linkonce_odr hidden noundef ptr @_ZN24TypedMethodOptionMatcher4nextEv(ptr noundef nonnull align 8 dereferenceable(56) %0) #1 comdat align 2 {
  %2 = alloca ptr, align 8
  store ptr %0, ptr %2, align 8
  %3 = load ptr, ptr %2, align 8
  %4 = getelementptr inbounds %class.TypedMethodOptionMatcher, ptr %3, i32 0, i32 1
  %5 = load ptr, ptr %4, align 8
  ret ptr %5
}

; Function Attrs: mustprogress nounwind uwtable
define linkonce_odr hidden noundef i32 @_ZN24TypedMethodOptionMatcher6optionEv(ptr noundef nonnull align 8 dereferenceable(56) %0) #1 comdat align 2 {
  %2 = alloca ptr, align 8
  store ptr %0, ptr %2, align 8
  %3 = load ptr, ptr %2, align 8
  %4 = getelementptr inbounds %class.TypedMethodOptionMatcher, ptr %3, i32 0, i32 2
  %5 = load i32, ptr %4, align 8
  ret i32 %5
}

; Function Attrs: mustprogress nounwind uwtable
define weak_odr hidden noundef zeroext i1 @_ZN14CompilerOracle16has_option_valueIbEEbRK12methodHandle18CompileCommandEnumRT_(ptr noundef nonnull align 8 dereferenceable(16) %0, i32 noundef %1, ptr noundef nonnull align 1 dereferenceable(1) %2) #1 comdat align 2 {
  %4 = alloca i1, align 1
  %5 = alloca ptr, align 8
  %6 = alloca i32, align 4
  %7 = alloca ptr, align 8
  %8 = alloca ptr, align 8
  store ptr %0, ptr %5, align 8
  store i32 %1, ptr %6, align 4
  store ptr %2, ptr %7, align 8
  %9 = load i32, ptr %6, align 4
  %10 = call noundef zeroext i1 @_ZL11has_command18CompileCommandEnum(i32 noundef %9)
  br i1 %10, label %12, label %11

11:                                               ; preds = %3
  store i1 false, ptr %4, align 1
  br label %29

12:                                               ; preds = %3
  %13 = load ptr, ptr @_ZL11option_list, align 8
  %14 = icmp ne ptr %13, null
  br i1 %14, label %15, label %28

15:                                               ; preds = %12
  %16 = load ptr, ptr @_ZL11option_list, align 8
  %17 = load ptr, ptr %5, align 8
  %18 = load i32, ptr %6, align 4
  %19 = call noundef ptr @_ZN24TypedMethodOptionMatcher5matchERK12methodHandle18CompileCommandEnum(ptr noundef nonnull align 8 dereferenceable(56) %16, ptr noundef nonnull align 8 dereferenceable(16) %17, i32 noundef %18)
  store ptr %19, ptr %8, align 8
  %20 = load ptr, ptr %8, align 8
  %21 = icmp ne ptr %20, null
  br i1 %21, label %22, label %27

22:                                               ; preds = %15
  %23 = load ptr, ptr %8, align 8
  %24 = call noundef zeroext i1 @_ZN24TypedMethodOptionMatcher5valueIbEET_v(ptr noundef nonnull align 8 dereferenceable(56) %23)
  %25 = load ptr, ptr %7, align 8
  %26 = zext i1 %24 to i8
  store i8 %26, ptr %25, align 1
  store i1 true, ptr %4, align 1
  br label %29

27:                                               ; preds = %15
  br label %28

28:                                               ; preds = %27, %12
  store i1 false, ptr %4, align 1
  br label %29

29:                                               ; preds = %28, %22, %11
  %30 = load i1, ptr %4, align 1
  ret i1 %30
}

; Function Attrs: mustprogress nounwind uwtable
define internal noundef zeroext i1 @_ZL26resolve_inlining_predicate18CompileCommandEnumRK12methodHandle(i32 noundef %0, ptr noundef nonnull align 8 dereferenceable(16) %1) #1 {
  %3 = alloca i1, align 1
  %4 = alloca i32, align 4
  %5 = alloca ptr, align 8
  %6 = alloca i8, align 1
  %7 = alloca i8, align 1
  %8 = alloca i8, align 1
  %9 = alloca i8, align 1
  %10 = alloca i32, align 4
  %11 = alloca ptr, align 8
  store i32 %0, ptr %4, align 4
  store ptr %1, ptr %5, align 8
  store i8 0, ptr %6, align 1
  store i8 0, ptr %7, align 1
  %12 = load ptr, ptr %5, align 8
  %13 = call noundef zeroext i1 @_ZN14CompilerOracle16has_option_valueIbEEbRK12methodHandle18CompileCommandEnumRT_(ptr noundef nonnull align 8 dereferenceable(16) %12, i32 noundef 4, ptr noundef nonnull align 1 dereferenceable(1) %6)
  %14 = zext i1 %13 to i8
  store i8 %14, ptr %8, align 1
  %15 = load ptr, ptr %5, align 8
  %16 = call noundef zeroext i1 @_ZN14CompilerOracle16has_option_valueIbEEbRK12methodHandle18CompileCommandEnumRT_(ptr noundef nonnull align 8 dereferenceable(16) %15, i32 noundef 5, ptr noundef nonnull align 1 dereferenceable(1) %7)
  %17 = zext i1 %16 to i8
  store i8 %17, ptr %9, align 1
  %18 = load i8, ptr %8, align 1
  %19 = trunc i8 %18 to i1
  br i1 %19, label %20, label %69

20:                                               ; preds = %2
  %21 = load i8, ptr %9, align 1
  %22 = trunc i8 %21 to i1
  br i1 %22, label %23, label %69

23:                                               ; preds = %20
  %24 = load i8, ptr %6, align 1
  %25 = trunc i8 %24 to i1
  br i1 %25, label %26, label %58

26:                                               ; preds = %23
  %27 = load i8, ptr %7, align 1
  %28 = trunc i8 %27 to i1
  br i1 %28, label %29, label %58

29:                                               ; preds = %26
  store i32 40, ptr %10, align 4
  %30 = load ptr, ptr @_ZL11option_list, align 8
  store ptr %30, ptr %11, align 8
  br label %31

31:                                               ; preds = %51, %29
  %32 = load ptr, ptr %11, align 8
  %33 = icmp ne ptr %32, null
  br i1 %33, label %34, label %54

34:                                               ; preds = %31
  %35 = load ptr, ptr %11, align 8
  %36 = call noundef i32 @_ZN24TypedMethodOptionMatcher6optionEv(ptr noundef nonnull align 8 dereferenceable(56) %35)
  store i32 %36, ptr %10, align 4
  %37 = load i32, ptr %10, align 4
  %38 = icmp eq i32 %37, 4
  br i1 %38, label %42, label %39

39:                                               ; preds = %34
  %40 = load i32, ptr %10, align 4
  %41 = icmp eq i32 %40, 5
  br i1 %41, label %42, label %51

42:                                               ; preds = %39, %34
  %43 = load ptr, ptr %11, align 8
  %44 = load ptr, ptr %5, align 8
  %45 = call noundef zeroext i1 @_ZNK13MethodMatcher7matchesERK12methodHandle(ptr noundef nonnull align 8 dereferenceable(32) %43, ptr noundef nonnull align 8 dereferenceable(16) %44)
  br i1 %45, label %46, label %50

46:                                               ; preds = %42
  %47 = load i32, ptr %10, align 4
  %48 = load i32, ptr %4, align 4
  %49 = icmp eq i32 %47, %48
  store i1 %49, ptr %3, align 1
  br label %90

50:                                               ; preds = %42
  br label %51

51:                                               ; preds = %50, %39
  %52 = load ptr, ptr %11, align 8
  %53 = call noundef ptr @_ZN24TypedMethodOptionMatcher4nextEv(ptr noundef nonnull align 8 dereferenceable(56) %52)
  store ptr %53, ptr %11, align 8
  br label %31, !llvm.loop !16

54:                                               ; preds = %31
  br label %55

55:                                               ; preds = %54
  %56 = load ptr, ptr @g_assert_poison, align 8
  store i8 88, ptr %56, align 1
  call void @_Z28report_should_not_reach_herePKci(ptr noundef @.str.10, i32 noundef 391) #10
  unreachable

57:                                               ; No predecessors!
  store i1 false, ptr %3, align 1
  br label %90

58:                                               ; preds = %26, %23
  %59 = load i32, ptr %4, align 4
  %60 = icmp eq i32 %59, 4
  br i1 %60, label %61, label %64

61:                                               ; preds = %58
  %62 = load i8, ptr %6, align 1
  %63 = trunc i8 %62 to i1
  br label %67

64:                                               ; preds = %58
  %65 = load i8, ptr %7, align 1
  %66 = trunc i8 %65 to i1
  br label %67

67:                                               ; preds = %64, %61
  %68 = phi i1 [ %63, %61 ], [ %66, %64 ]
  store i1 %68, ptr %3, align 1
  br label %90

69:                                               ; preds = %20, %2
  %70 = load i32, ptr %4, align 4
  %71 = icmp eq i32 %70, 4
  br i1 %71, label %72, label %81

72:                                               ; preds = %69
  %73 = load i8, ptr %8, align 1
  %74 = trunc i8 %73 to i1
  br i1 %74, label %75, label %78

75:                                               ; preds = %72
  %76 = load i8, ptr %6, align 1
  %77 = trunc i8 %76 to i1
  br label %79

78:                                               ; preds = %72
  br label %79

79:                                               ; preds = %78, %75
  %80 = phi i1 [ %77, %75 ], [ false, %78 ]
  store i1 %80, ptr %3, align 1
  br label %90

81:                                               ; preds = %69
  %82 = load i8, ptr %9, align 1
  %83 = trunc i8 %82 to i1
  br i1 %83, label %84, label %87

84:                                               ; preds = %81
  %85 = load i8, ptr %7, align 1
  %86 = trunc i8 %85 to i1
  br label %88

87:                                               ; preds = %81
  br label %88

88:                                               ; preds = %87, %84
  %89 = phi i1 [ %86, %84 ], [ false, %87 ]
  store i1 %89, ptr %3, align 1
  br label %90

90:                                               ; preds = %88, %79, %67, %57, %46
  %91 = load i1, ptr %3, align 1
  ret i1 %91
}

; Function Attrs: mustprogress nounwind uwtable
define internal noundef zeroext i1 @_ZL11has_command18CompileCommandEnum(i32 noundef %0) #1 {
  %2 = alloca i32, align 4
  store i32 %0, ptr %2, align 4
  %3 = load i32, ptr %2, align 4
  %4 = sext i32 %3 to i64
  %5 = getelementptr inbounds [41 x i8], ptr @_ZL13option_filter, i64 0, i64 %4
  %6 = load i8, ptr %5, align 1
  %7 = trunc i8 %6 to i1
  ret i1 %7
}

; Function Attrs: mustprogress nounwind uwtable
define internal noundef zeroext i1 @_ZL15check_predicate18CompileCommandEnumRK12methodHandle(i32 noundef %0, ptr noundef nonnull align 8 dereferenceable(16) %1) #1 {
  %3 = alloca i1, align 1
  %4 = alloca i32, align 4
  %5 = alloca ptr, align 8
  %6 = alloca i8, align 1
  store i32 %0, ptr %4, align 4
  store ptr %1, ptr %5, align 8
  %7 = load i32, ptr %4, align 4
  %8 = icmp eq i32 %7, 4
  br i1 %8, label %12, label %9

9:                                                ; preds = %2
  %10 = load i32, ptr %4, align 4
  %11 = icmp eq i32 %10, 5
  br i1 %11, label %12, label %16

12:                                               ; preds = %9, %2
  %13 = load i32, ptr %4, align 4
  %14 = load ptr, ptr %5, align 8
  %15 = call noundef zeroext i1 @_ZL26resolve_inlining_predicate18CompileCommandEnumRK12methodHandle(i32 noundef %13, ptr noundef nonnull align 8 dereferenceable(16) %14)
  store i1 %15, ptr %3, align 1
  br label %24

16:                                               ; preds = %9
  store i8 0, ptr %6, align 1
  %17 = load ptr, ptr %5, align 8
  %18 = load i32, ptr %4, align 4
  %19 = call noundef zeroext i1 @_ZN14CompilerOracle16has_option_valueIbEEbRK12methodHandle18CompileCommandEnumRT_(ptr noundef nonnull align 8 dereferenceable(16) %17, i32 noundef %18, ptr noundef nonnull align 1 dereferenceable(1) %6)
  br i1 %19, label %20, label %23

20:                                               ; preds = %16
  %21 = load i8, ptr %6, align 1
  %22 = trunc i8 %21 to i1
  store i1 %22, ptr %3, align 1
  br label %24

23:                                               ; preds = %16
  store i1 false, ptr %3, align 1
  br label %24

24:                                               ; preds = %23, %20, %12
  %25 = load i1, ptr %3, align 1
  ret i1 %25
}

; Function Attrs: mustprogress nounwind uwtable
define hidden noundef zeroext i1 @_ZN14CompilerOracle14should_excludeERK12methodHandle(ptr noundef nonnull align 8 dereferenceable(16) %0) #1 align 2 {
  %2 = alloca i1, align 1
  %3 = alloca ptr, align 8
  store ptr %0, ptr %3, align 8
  %4 = load ptr, ptr %3, align 8
  %5 = call noundef zeroext i1 @_ZL15check_predicate18CompileCommandEnumRK12methodHandle(i32 noundef 8, ptr noundef nonnull align 8 dereferenceable(16) %4)
  br i1 %5, label %6, label %7

6:                                                ; preds = %1
  store i1 true, ptr %2, align 1
  br label %14

7:                                                ; preds = %1
  %8 = call noundef zeroext i1 @_ZL11has_command18CompileCommandEnum(i32 noundef 7)
  br i1 %8, label %9, label %13

9:                                                ; preds = %7
  %10 = load ptr, ptr %3, align 8
  %11 = call noundef zeroext i1 @_ZL15check_predicate18CompileCommandEnumRK12methodHandle(i32 noundef 7, ptr noundef nonnull align 8 dereferenceable(16) %10)
  %12 = xor i1 %11, true
  store i1 %12, ptr %2, align 1
  br label %14

13:                                               ; preds = %7
  store i1 false, ptr %2, align 1
  br label %14

14:                                               ; preds = %13, %9, %6
  %15 = load i1, ptr %2, align 1
  ret i1 %15
}