; Function Attrs: mustprogress nounwind uwtable
define hidden noundef zeroext i1 @_ZN14CompilerOracle14should_excludeERK12methodHandle(ptr noundef nonnull align 8 dereferenceable(16) %0) local_unnamed_addr #2 align 2 {
  %2 = load i8, ptr getelementptr inbounds (i8, ptr @_ZL13option_filter, i64 8), align 8
  %3 = trunc i8 %2 to i1
  %4 = load ptr, ptr @_ZL11option_list, align 8
  %.not.i8.i = icmp ne ptr %4, null
  %or.cond.not.i.i = select i1 %3, i1 %.not.i8.i, i1 false
  br i1 %or.cond.not.i.i, label %.preheader.i10.i, label %_ZL15check_predicate18CompileCommandEnumRK12methodHandle.exit.thread

.preheader.i10.i:                                 ; preds = %1, %10
  %.09.i.i.i = phi ptr [ %12, %10 ], [ %4, %1 ]
  %5 = getelementptr inbounds i8, ptr %.09.i.i.i, i64 40
  %6 = load i32, ptr %5, align 8
  %7 = icmp eq i32 %6, 8
  br i1 %7, label %8, label %10

8:                                                ; preds = %.preheader.i10.i
  %9 = tail call noundef zeroext i1 @_ZNK13MethodMatcher7matchesERK12methodHandle(ptr noundef nonnull align 8 dereferenceable(32) %.09.i.i.i, ptr noundef nonnull align 8 dereferenceable(16) %0) #19
  br i1 %9, label %_ZL15check_predicate18CompileCommandEnumRK12methodHandle.exit, label %10

10:                                               ; preds = %8, %.preheader.i10.i
  %11 = getelementptr inbounds i8, ptr %.09.i.i.i, i64 32
  %12 = load ptr, ptr %11, align 8
  %.not.i.i11.i = icmp eq ptr %12, null
  br i1 %.not.i.i11.i, label %_ZL15check_predicate18CompileCommandEnumRK12methodHandle.exit.thread, label %.preheader.i10.i, !llvm.loop !6

_ZL15check_predicate18CompileCommandEnumRK12methodHandle.exit: ; preds = %8
  %13 = getelementptr inbounds i8, ptr %.09.i.i.i, i64 48
  %14 = load i8, ptr %13, align 8
  %15 = trunc i8 %14 to i1
  br i1 %15, label %_ZL15check_predicate18CompileCommandEnumRK12methodHandle.exit9, label %_ZL15check_predicate18CompileCommandEnumRK12methodHandle.exit.thread

_ZL15check_predicate18CompileCommandEnumRK12methodHandle.exit.thread: ; preds = %10, %1, %_ZL15check_predicate18CompileCommandEnumRK12methodHandle.exit
  %16 = load i8, ptr getelementptr inbounds (i8, ptr @_ZL13option_filter, i64 7), align 1
  %17 = trunc i8 %16 to i1
  br i1 %17, label %18, label %_ZL15check_predicate18CompileCommandEnumRK12methodHandle.exit9

18:                                               ; preds = %_ZL15check_predicate18CompileCommandEnumRK12methodHandle.exit.thread
  %19 = load ptr, ptr @_ZL11option_list, align 8
  %.not.i8.i3.not = icmp eq ptr %19, null
  br i1 %.not.i8.i3.not, label %_ZL15check_predicate18CompileCommandEnumRK12methodHandle.exit9, label %.preheader.i10.i6

.preheader.i10.i6:                                ; preds = %18, %25
  %.09.i.i.i7 = phi ptr [ %27, %25 ], [ %19, %18 ]
  %20 = getelementptr inbounds i8, ptr %.09.i.i.i7, i64 40
  %21 = load i32, ptr %20, align 8
  %22 = icmp eq i32 %21, 7
  br i1 %22, label %23, label %25

23:                                               ; preds = %.preheader.i10.i6
  %24 = tail call noundef zeroext i1 @_ZNK13MethodMatcher7matchesERK12methodHandle(ptr noundef nonnull align 8 dereferenceable(32) %.09.i.i.i7, ptr noundef nonnull align 8 dereferenceable(16) %0) #19
  br i1 %24, label %28, label %25

25:                                               ; preds = %23, %.preheader.i10.i6
  %26 = getelementptr inbounds i8, ptr %.09.i.i.i7, i64 32
  %27 = load ptr, ptr %26, align 8
  %.not.i.i11.i8 = icmp eq ptr %27, null
  br i1 %.not.i.i11.i8, label %_ZL15check_predicate18CompileCommandEnumRK12methodHandle.exit9, label %.preheader.i10.i6, !llvm.loop !6

28:                                               ; preds = %23
  %29 = getelementptr inbounds i8, ptr %.09.i.i.i7, i64 48
  %30 = load i8, ptr %29, align 8
  %31 = trunc i8 %30 to i1
  %32 = xor i1 %31, true
  br label %_ZL15check_predicate18CompileCommandEnumRK12methodHandle.exit9

_ZL15check_predicate18CompileCommandEnumRK12methodHandle.exit9: ; preds = %25, %28, %18, %_ZL15check_predicate18CompileCommandEnumRK12methodHandle.exit.thread, %_ZL15check_predicate18CompileCommandEnumRK12methodHandle.exit
  %.0 = phi i1 [ true, %_ZL15check_predicate18CompileCommandEnumRK12methodHandle.exit ], [ false, %_ZL15check_predicate18CompileCommandEnumRK12methodHandle.exit.thread ], [ %32, %28 ], [ true, %18 ], [ true, %25 ]
  ret i1 %.0
}